Certificate:
    Data:
        Version: 3 (0x2)
        Serial Number: 2 (0x2)
        Signature Algorithm: md5WithRSAEncryption
        Issuer: CN=Lorien, ST=Maryland, C=US/emailAddress=none, O=Root Certification Authority
        Validity
            Not Before: Jul 12 21:20:35 2005 GMT
            Not After : Jul 12 21:20:35 2006 GMT
        Subject: CN=test2, ST=Maryland, C=US
        Subject Public Key Info:
            Public Key Algorithm: rsaEncryption
            RSA Public Key: (1024 bit)
                Modulus (1024 bit):
                    00:b8:61:61:f2:dd:ca:21:a5:b2:35:94:16:bd:4b:
                    51:5e:00:65:a5:20:45:6d:81:df:bd:0e:ae:9d:78:
                    a2:0d:b5:6a:98:2f:7c:1e:1b:39:5a:78:8f:3b:1f:
                    be:85:2a:ac:95:f4:2b:3d:ec:b2:ff:e1:3c:fc:af:
                    f6:93:5c:c5:ec:e3:4e:ad:4e:cb:55:0f:6f:56:eb:
                    59:ed:fe:f4:bf:0f:f5:53:44:b1:66:09:0f:f4:b0:
                    26:0f:fa:c8:9e:cc:e5:06:fe:87:4f:2e:c7:62:8d:
                    75:da:82:a8:02:ef:bb:8e:f2:06:ee:04:bd:f4:31:
                    d2:13:a1:de:d2:81:08:06:e7
                Exponent: 65537 (0x10001)
        X509v3 extensions:
            X509v3 Basic Constraints: 
                CA:FALSE
    Signature Algorithm: md5WithRSAEncryption
        40:2e:68:28:71:32:bc:6c:10:82:aa:bb:51:48:45:c9:02:46:
        6d:64:04:61:5c:ec:61:4f:4b:d7:92:e9:41:ff:89:a0:2e:14:
        82:f0:87:1c:50:43:20:5e:9b:17:56:25:c4:60:c9:23:02:de:
        9f:33:0c:05:aa:4d:42:e4:52:e5:b5:89:cc:18:1a:79:a8:cc:
        f7:c8:11:ec:5d:cf:6e:d8:48:19:14:20:37:c5:db:ca:d8:01:
        50:56:38:37:1d:4f:d4:6a:49:1a:ff:29:1d:4e:a1:4f:d3:19:
        ef:e4:d6:99:87:d0:5f:93:c8:83:b2:1d:90:f1:f5:27:04:30:
        a5:4d:5e:0d:5d:81:80:85:63:cd:c4:6d:8e:be:37:a2:d9:a6:
        ad:be:43:e9:f5:c4:55:8d:16:97:b8:b4:7b:59:29:bb:79:6e:
        ec:bd:08:e2:56:20:d2:4c:e7:16:98:ba:5b:6b:30:e9:ad:46:
        89:86:d1:dd:60:53:b4:07:42:3f:2c:d6:d6:69:53:c1:47:c7:
        8a:b8:21:04:2e:b2:07:77:de:86:53:f7:32:d1:fc:ff:03:21:
        72:b4:e9:86:27:0e:36:2b:03:6a:fb:09:bc:f4:0d:62:26:46:
        02:ad:f2:12:d2:16:93:0d:fe:6d:42:7b:ac:9c:5d:b8:7b:7a:
        e5:89:ed:5c
-----BEGIN CERTIFICATE-----
MIICoTCCAYmgAwIBAgIBAjANBgkqhkiG9w0BAQQFADBtMQ8wDQYDVQQDEwZMb3Jp
ZW4xETAPBgNVBAgTCE1hcnlsYW5kMQswCQYDVQQGEwJVUzETMBEGCSqGSIb3DQEJ
ARYEbm9uZTElMCMGA1UEChMcUm9vdCBDZXJ0aWZpY2F0aW9uIEF1dGhvcml0eTAe
Fw0wNTA3MTIyMTIwMzVaFw0wNjA3MTIyMTIwMzVaMDAxDjAMBgNVBAMTBXRlc3Qy
MREwDwYDVQQIEwhNYXJ5bGFuZDELMAkGA1UEBhMCVVMwgZ8wDQYJKoZIhvcNAQEB
BQADgY0AMIGJAoGBALhhYfLdyiGlsjWUFr1LUV4AZaUgRW2B370Orp14og21apgv
fB4bOVp4jzsfvoUqrJX0Kz3ssv/hPPyv9pNcxezjTq1Oy1UPb1brWe3+9L8P9VNE
sWYJD/SwJg/6yJ7M5Qb+h08ux2KNddqCqALvu47yBu4EvfQx0hOh3tKBCAbnAgMB
AAGjDTALMAkGA1UdEwQCMAAwDQYJKoZIhvcNAQEEBQADggEBAEAuaChxMrxsEIKq
u1FIRckCRm1kBGFc7GFPS9eS6UH/iaAuFILwhxxQQyBemxdWJcRgySMC3p8zDAWq
TULkUuW1icwYGnmozPfIEexdz27YSBkUIDfF28rYAVBWODcdT9RqSRr/KR1OoU/T
Ge/k1pmH0F+TyIOyHZDx9ScEMKVNXg1dgYCFY83EbY6+N6LZpq2+Q+n1xFWNFpe4
tHtZKbt5buy9COJWINJM5xaYultrMOmtRomG0d1gU7QHQj8s1tZpU8FHx4q4IQQu
sgd33oZT9zLR/P8DIXK06YYnDjYrA2r7Cbz0DWImRgKt8hLSFpMN/m1Ce6ycXbh7
euWJ7Vw=
-----END CERTIFICATE-----
